Certificate:
    Data:
        Version: 3 (0x2)
        Serial Number: 11048104926131648409 (0x9952c0e51b51f799)
    Signature Algorithm: sha1WithRSAEncryption
        Issuer: CN=QUIC Server Root CA
        Validity
            Not Before: May 13 08:48:27 2019 GMT
            Not After : May 16 08:48:27 2019 GMT
        Subject: CN=QUIC Server Root CA
        Subject Public Key Info:
            Public Key Algorithm: rsaEncryption
                Public-Key: (2048 bit)
                Modulus:
                    00:99:07:5a:d6:9b:71:df:e0:a9:a3:a1:90:da:65:
                    68:8d:ab:5e:0c:20:87:8b:a4:17:ab:ba:b9:6a:74:
                    85:68:36:d1:9c:03:b2:cf:a5:d9:88:52:19:26:10:
                    95:5c:b5:e2:bd:cf:a8:0b:c7:c1:ed:5f:a8:c5:fc:
                    07:cb:ac:02:2b:ed:1f:98:eb:f4:b1:5c:e1:51:40:
                    2d:bc:21:93:19:eb:d0:43:ed:99:9b:41:d8:94:2d:
                    b6:69:41:03:98:b2:82:4b:05:36:58:60:0b:93:72:
                    cd:21:74:e5:a0:f3:2c:ff:13:68:fb:1b:48:88:bb:
                    f5:cb:b0:e8:6a:81:69:db:05:69:f0:5e:f7:d9:ad:
                    05:c0:42:90:0f:75:70:7a:de:ac:50:e1:71:ed:d0:
                    83:e7:1d:6a:1e:8f:3f:cd:8a:40:8f:fa:0a:d5:32:
                    36:cc:a7:69:50:cf:b1:82:0d:9e:5e:c3:d2:1d:9a:
                    73:3a:09:1e:e3:84:e4:1e:41:b3:84:79:5c:ef:8a:
                    f1:c7:8e:1d:da:e2:b5:98:b1:5e:b5:9b:4c:45:f6:
                    c7:fa:53:82:ff:ff:d5:ff:65:75:5a:2c:a3:86:06:
                    75:73:19:f6:a9:1e:33:b0:97:f2:bc:73:c2:6e:b8:
                    aa:cb:40:c8:9c:e1:ea:1e:51:58:57:ae:12:bf:c9:
                    9d:c5
                Exponent: 65537 (0x10001)
        X509v3 extensions:
            X509v3 Basic Constraints: critical
                CA:TRUE
            X509v3 Subject Key Identifier: 
                18:4E:01:2B:78:F8:12:4C:68:47:04:EB:84:03:DB:64:AB:3F:D5:76
            X509v3 Key Usage: critical
                Certificate Sign, CRL Sign
    Signature Algorithm: sha1WithRSAEncryption
         87:75:5a:50:dd:8e:c4:d6:bd:9d:70:a9:c9:77:72:57:ed:df:
         44:c8:40:fd:2b:a7:52:11:c4:b4:7d:20:dc:b7:cc:25:dc:bc:
         41:4c:c0:c7:cf:fa:2d:25:a1:a2:c4:76:7f:2b:d6:fc:b2:c1:
         e7:b0:ae:d9:61:74:ee:57:1f:6b:39:32:d9:5b:75:bb:6b:a8:
         3c:80:50:82:c7:c1:83:56:57:14:58:58:a0:76:3e:21:93:03:
         31:7e:98:42:73:4a:6f:3f:c8:64:5b:27:96:25:82:5f:9e:61:
         cb:38:d8:64:78:9a:95:23:d8:9e:3a:3c:df:28:2b:58:1a:cd:
         c1:83:d4:c3:28:b7:c9:5a:fd:c5:e5:74:10:c3:45:8e:1f:8c:
         cf:6a:18:1f:6e:52:1e:c0:2b:75:9c:72:cf:43:11:37:61:1a:
         07:d4:a5:2b:39:76:1b:43:02:24:8a:7b:2c:ba:6a:91:1b:14:
         ef:7a:4c:ea:16:e7:8e:c7:55:c7:04:d4:e5:74:a6:84:88:9d:
         94:ad:48:93:6a:7d:f9:ee:85:62:82:ca:5e:d7:03:58:0b:ba:
         b0:7a:f4:43:2c:45:b4:d5:99:27:21:00:17:2d:1d:87:27:a3:
         4e:81:25:d7:bb:41:ee:90:45:99:c0:36:17:b4:d3:90:e9:3f:
         ea:2e:d2:5b
-----BEGIN CERTIFICATE-----
MIIDATCCAemgAwIBAgIJAJlSwOUbUfeZMA0GCSqGSIb3DQEBBQUAMB4xHDAaBgNV
BAMME1FVSUMgU2VydmVyIFJvb3QgQ0EwHhcNMTkwNTEzMDg0ODI3WhcNMTkwNTE2
MDg0ODI3WjAeMRwwGgYDVQQDDBNRVUlDIFNlcnZlciBSb290IENBMIIBIjANBgkq
hkiG9w0BAQEFAAOCAQ8AMIIBCgKCAQEAmQda1ptx3+Cpo6GQ2mVojateDCCHi6QX
q7q5anSFaDbRnAOyz6XZiFIZJhCVXLXivc+oC8fB7V+oxfwHy6wCK+0fmOv0sVzh
UUAtvCGTGevQQ+2Zm0HYlC22aUEDmLKCSwU2WGALk3LNIXTloPMs/xNo+xtIiLv1
y7DoaoFp2wVp8F732a0FwEKQD3Vwet6sUOFx7dCD5x1qHo8/zYpAj/oK1TI2zKdp
UM+xgg2eXsPSHZpzOgke44TkHkGzhHlc74rxx44d2uK1mLFetZtMRfbH+lOC///V
/2V1WiyjhgZ1cxn2qR4zsJfyvHPCbriqy0DInOHqHlFYV64Sv8mdxQIDAQABo0Iw
QDAPBgNVHRMBAf8EBTADAQH/MB0GA1UdDgQWBBQYTgErePgSTGhHBOuEA9tkqz/V
djAOBgNVHQ8BAf8EBAMCAQYwDQYJKoZIhvcNAQEFBQADggEBAId1WlDdjsTWvZ1w
qcl3clft30TIQP0rp1IRxLR9INy3zCXcvEFMwMfP+i0loaLEdn8r1vyyweewrtlh
dO5XH2s5MtlbdbtrqDyAUILHwYNWVxRYWKB2PiGTAzF+mEJzSm8/yGRbJ5Ylgl+e
Ycs42GR4mpUj2J46PN8oK1gazcGD1MMot8la/cXldBDDRY4fjM9qGB9uUh7AK3Wc
cs9DETdhGgfUpSs5dhtDAiSKeyy6apEbFO96TOoW547HVccE1OV0poSInZStSJNq
ffnuhWKCyl7XA1gLurB69EMsRbTVmSchABctHYcno06BJde7Qe6QRZnANhe005Dp
P+ou0ls=
-----END CERTIFICATE-----
