Certificate:
    Data:
        Version: 3 (0x2)
        Serial Number: 1 (0x1)
    Signature Algorithm: sha256WithRSAEncryption
        Issuer: CN=QUIC Server Root CA
        Validity
            Not Before: May 13 08:48:29 2019 GMT
            Not After : May 16 08:48:29 2019 GMT
        Subject: C=US, ST=California, L=Mountain View, O=QUIC Server, CN=127.0.0.1
        Subject Public Key Info:
            Public Key Algorithm: rsaEncryption
                Public-Key: (2048 bit)
                Modulus:
                    00:c7:7e:84:71:b5:47:8e:f6:4c:af:c4:e2:b6:0a:
                    a5:d8:64:6a:a5:b4:67:a8:02:37:60:00:cc:d8:b2:
                    03:d1:32:f1:d8:a5:47:e7:36:2a:38:da:da:7e:88:
                    b8:d6:72:cc:c6:da:5f:35:1b:74:5c:a7:7b:46:2c:
                    ce:ad:ad:95:66:03:69:57:de:bd:35:bc:f1:06:50:
                    f1:83:b5:47:67:76:e5:2f:2d:b8:b1:63:79:15:07:
                    98:78:8e:14:25:ff:75:7d:f6:ba:7d:9b:1d:8f:39:
                    0c:12:0c:e4:c3:9c:c4:dd:ea:a9:d2:df:8b:46:65:
                    85:92:fc:fb:0c:67:03:bb:e4:43:a4:27:c5:13:e4:
                    20:09:bc:7e:3c:ac:84:6a:4a:3b:67:37:1f:9f:82:
                    64:bd:88:e9:1b:32:90:ae:a1:6e:86:21:7b:74:15:
                    8a:d8:37:af:b9:66:3c:42:ad:d9:40:49:9e:fb:37:
                    10:d6:69:2e:3b:6c:e9:78:b1:3d:c0:63:1b:a0:a9:
                    52:91:d2:66:a4:cf:f1:fb:9f:6b:78:58:73:8c:b9:
                    be:b5:84:ed:be:b3:b7:97:51:28:27:ec:80:4a:58:
                    c1:cf:42:b3:2b:a1:7a:59:d3:ba:63:c4:86:69:36:
                    b4:54:5d:8a:f4:87:86:94:b8:8e:17:a6:20:a2:ee:
                    ea:99
                Exponent: 65537 (0x10001)
        X509v3 extensions:
            X509v3 Basic Constraints: critical
                CA:FALSE
            X509v3 Subject Key Identifier: 
                DF:3E:07:5C:D4:9F:A7:23:2C:E6:C6:71:5A:36:DC:F3:E6:22:51:DD
            X509v3 Authority Key Identifier: 
                keyid:18:4E:01:2B:78:F8:12:4C:68:47:04:EB:84:03:DB:64:AB:3F:D5:76

            X509v3 Extended Key Usage: 
                TLS Web Server Authentication, TLS Web Client Authentication
            X509v3 Subject Alternative Name: 
                DNS:www.example.org, DNS:mail.example.org, DNS:mail.example.com, IP Address:127.0.0.1
    Signature Algorithm: sha256WithRSAEncryption
         5d:62:98:29:84:85:c7:f9:a7:e8:6d:ab:ed:b5:06:7e:d2:51:
         86:bf:e7:ba:bb:3c:48:e9:63:81:cb:b4:17:d2:f4:10:3a:74:
         a2:4d:14:4a:70:1e:2d:c4:f8:14:d1:7c:ca:05:2c:e8:c9:63:
         00:1b:c0:04:e5:bd:b5:61:08:8b:fc:b1:d2:f3:c5:6f:dc:ae:
         80:dd:b8:8f:fa:c4:9b:d6:fe:51:b9:2b:f0:aa:26:df:d3:2b:
         25:9d:74:cc:90:2d:cd:fe:69:4f:1a:55:cd:75:0c:a2:3b:e0:
         eb:d9:df:43:28:93:26:58:3b:f3:92:eb:e2:ce:72:aa:04:69:
         48:f8:3a:6a:d7:b6:c6:4b:5c:1e:49:85:cd:e6:77:bb:d0:0f:
         20:55:20:d5:2b:83:08:03:e8:b8:a7:06:ff:4d:f6:69:e2:e4:
         8c:ba:7b:82:d8:87:e9:77:fa:96:52:4f:a8:b1:af:9f:5b:27:
         e5:38:15:d2:7d:db:47:71:28:c3:15:c5:b0:24:2a:a5:49:54:
         d0:cb:04:9d:cf:ae:66:e8:9c:b8:68:bc:b4:1c:d1:38:9b:9f:
         58:77:61:7a:ee:e8:2d:e9:dd:52:36:3e:63:70:e0:5e:1a:2d:
         84:66:11:21:c0:0a:41:93:f8:23:e5:2a:64:8d:14:d8:0a:e1:
         0d:4e:53:99
-----BEGIN CERTIFICATE-----
MIIDtDCCApygAwIBAgIBATANBgkqhkiG9w0BAQsFADAeMRwwGgYDVQQDDBNRVUlD
IFNlcnZlciBSb290IENBMB4XDTE5MDUxMzA4NDgyOVoXDTE5MDUxNjA4NDgyOVow
ZDELMAkGA1UEBhMCVVMxEzARBgNVBAgMCkNhbGlmb3JuaWExFjAUBgNVBAcMDU1v
dW50YWluIFZpZXcxFDASBgNVBAoMC1FVSUMgU2VydmVyMRIwEAYDVQQDDAkxMjcu
MC4wLjEwggEiMA0GCSqGSIb3DQEBAQUAA4IBDwAwggEKAoIBAQDHfoRxtUeO9kyv
xOK2CqXYZGqltGeoAjdgAMzYsgPRMvHYpUfnNio42tp+iLjWcszG2l81G3Rcp3tG
LM6trZVmA2lX3r01vPEGUPGDtUdnduUvLbixY3kVB5h4jhQl/3V99rp9mx2POQwS
DOTDnMTd6qnS34tGZYWS/PsMZwO75EOkJ8UT5CAJvH48rIRqSjtnNx+fgmS9iOkb
MpCuoW6GIXt0FYrYN6+5ZjxCrdlASZ77NxDWaS47bOl4sT3AYxugqVKR0makz/H7
n2t4WHOMub61hO2+s7eXUSgn7IBKWMHPQrMroXpZ07pjxIZpNrRUXYr0h4aUuI4X
piCi7uqZAgMBAAGjgbYwgbMwDAYDVR0TAQH/BAIwADAdBgNVHQ4EFgQU3z4HXNSf
pyMs5sZxWjbc8+YiUd0wHwYDVR0jBBgwFoAUGE4BK3j4EkxoRwTrhAPbZKs/1XYw
HQYDVR0lBBYwFAYIKwYBBQUHAwEGCCsGAQUFBwMCMEQGA1UdEQQ9MDuCD3d3dy5l
eGFtcGxlLm9yZ4IQbWFpbC5leGFtcGxlLm9yZ4IQbWFpbC5leGFtcGxlLmNvbYcE
fwAAATANBgkqhkiG9w0BAQsFAAOCAQEAXWKYKYSFx/mn6G2r7bUGftJRhr/nurs8
SOljgcu0F9L0EDp0ok0USnAeLcT4FNF8ygUs6MljABvABOW9tWEIi/yx0vPFb9yu
gN24j/rEm9b+Ubkr8Kom39MrJZ10zJAtzf5pTxpVzXUMojvg69nfQyiTJlg785Lr
4s5yqgRpSPg6ate2xktcHkmFzeZ3u9APIFUg1SuDCAPouKcG/032aeLkjLp7gtiH
6Xf6llJPqLGvn1sn5TgV0n3bR3EowxXFsCQqpUlU0MsEnc+uZuicuGi8tBzROJuf
WHdheu7oLendUjY+Y3DgXhothGYRIcAKQZP4I+UqZI0U2ArhDU5TmQ==
-----END CERTIFICATE-----
